; Function Attrs: mustprogress nofree nosync nounwind willreturn memory(write, inaccessiblemem: none) uwtable
define dso_local noalias noundef ptr @auth_p_get_identity(ptr noundef readnone captures(address_is_null) %0) local_unnamed_addr #11 {
  %.not = icmp eq ptr %0, null
  br i1 %.not, label %2, label %4

2:                                                ; preds = %1
  %3 = tail call ptr @__errno_location() #14
  store i32 6004, ptr %3, align 4
  br label %4

4:                                                ; preds = %1, %2
  ret ptr null
}